target datalayout = "e-m:e-p270:32:32-p271:32:32-p272:64:64-i64:64-i128:128-f80:128-n8:16:32:64-S128"
target triple = "x86_64-pc-linux-gnu"

@hf_r3_commandlength = internal global i32 0, align 4
@hf_r3_command = internal global i32 0, align 4
@hf_r3_declinedlogdump_starttime_year = internal global i32 0, align 4
@hf_r3_declinedlogdump_starttime_month = internal global i32 0, align 4
@hf_r3_declinedlogdump_starttime_day = internal global i32 0, align 4
@hf_r3_declinedlogdump_starttime_hours = internal global i32 0, align 4
@hf_r3_declinedlogdump_starttime_minutes = internal global i32 0, align 4
@hf_r3_declinedlogdump_endtime_year = internal global i32 0, align 4
@hf_r3_declinedlogdump_endtime_month = internal global i32 0, align 4
@hf_r3_declinedlogdump_endtime_day = internal global i32 0, align 4
@hf_r3_declinedlogdump_endtime_hours = internal global i32 0, align 4
@hf_r3_declinedlogdump_endtime_minutes = internal global i32 0, align 4
@ett_r3declinedlogdumpstarttime = internal global i32 0, align 4
@ett_r3declinedlogdumpendtime = internal global i32 0, align 4
@.str.2189 = private unnamed_addr constant [48 x i8] c"Start YY/MM/DD HH:MM (%02u/%02u/%02u %02u:%02u)\00", align 1
@.str.2190 = private unnamed_addr constant [46 x i8] c"End YY/MM/DD HH:MM (%02u/%02u/%02u %02u:%02u)\00", align 1

; Function Attrs: null_pointer_is_valid sspstrong uwtable
define internal void @dissect_r3_cmd_declinedlogdump(ptr noundef %0, i32 noundef %1, i32 noundef %2, ptr noundef %3, ptr noundef %4) #0 {
  %6 = alloca ptr, align 8
  %7 = alloca i32, align 4
  %8 = alloca i32, align 4
  %9 = alloca ptr, align 8
  %10 = alloca ptr, align 8
  %11 = alloca ptr, align 8
  %12 = alloca ptr, align 8
  %13 = alloca i8, align 1
  %14 = alloca ptr, align 8
  %15 = alloca i32, align 4
  store ptr %0, ptr %6, align 8
  store i32 %1, ptr %7, align 4
  store i32 %2, ptr %8, align 4
  store ptr %3, ptr %9, align 8
  store ptr %4, ptr %10, align 8
  call void @llvm.lifetime.start.p0(i64 8, ptr %11) #5
  call void @llvm.lifetime.start.p0(i64 8, ptr %12) #5
  call void @llvm.lifetime.start.p0(i64 1, ptr %13) #5
  call void @llvm.lifetime.start.p0(i64 8, ptr %14) #5
  %16 = load ptr, ptr %10, align 8
  %17 = icmp ne ptr %16, null
  br i1 %17, label %19, label %18

18:                                               ; preds = %5
  store i32 1, ptr %15, align 4
  br label %121

19:                                               ; preds = %5
  %20 = load ptr, ptr %6, align 8
  %21 = load i32, ptr %7, align 4
  %22 = add i32 %21, 0
  %23 = call zeroext i8 @tvb_get_uint8(ptr noundef %20, i32 noundef %22)
  store i8 %23, ptr %13, align 1
  %24 = load ptr, ptr %6, align 8
  %25 = load i32, ptr %7, align 4
  %26 = add i32 %25, 2
  %27 = load i8, ptr %13, align 1
  %28 = zext i8 %27 to i32
  %29 = sub i32 %28, 2
  %30 = call ptr @tvb_new_subset_length(ptr noundef %24, i32 noundef %26, i32 noundef %29)
  store ptr %30, ptr %14, align 8
  %31 = load ptr, ptr %10, align 8
  %32 = load i32, ptr @hf_r3_commandlength, align 4
  %33 = load ptr, ptr %6, align 8
  %34 = load i32, ptr %7, align 4
  %35 = add i32 %34, 0
  %36 = call ptr @proto_tree_add_item(ptr noundef %31, i32 noundef %32, ptr noundef %33, i32 noundef %35, i32 noundef 1, i32 noundef -2147483648)
  %37 = load ptr, ptr %10, align 8
  %38 = load i32, ptr @hf_r3_command, align 4
  %39 = load ptr, ptr %6, align 8
  %40 = load i32, ptr %7, align 4
  %41 = add i32 %40, 1
  %42 = call ptr @proto_tree_add_item(ptr noundef %37, i32 noundef %38, ptr noundef %39, i32 noundef %41, i32 noundef 1, i32 noundef -2147483648)
  %43 = load ptr, ptr %10, align 8
  %44 = load ptr, ptr %14, align 8
  %45 = load i32, ptr @ett_r3declinedlogdumpstarttime, align 4
  %46 = load ptr, ptr %14, align 8
  %47 = call zeroext i8 @tvb_get_uint8(ptr noundef %46, i32 noundef 0)
  %48 = zext i8 %47 to i32
  %49 = load ptr, ptr %14, align 8
  %50 = call zeroext i8 @tvb_get_uint8(ptr noundef %49, i32 noundef 1)
  %51 = zext i8 %50 to i32
  %52 = load ptr, ptr %14, align 8
  %53 = call zeroext i8 @tvb_get_uint8(ptr noundef %52, i32 noundef 2)
  %54 = zext i8 %53 to i32
  %55 = load ptr, ptr %14, align 8
  %56 = call zeroext i8 @tvb_get_uint8(ptr noundef %55, i32 noundef 3)
  %57 = zext i8 %56 to i32
  %58 = load ptr, ptr %14, align 8
  %59 = call zeroext i8 @tvb_get_uint8(ptr noundef %58, i32 noundef 4)
  %60 = zext i8 %59 to i32
  %61 = call ptr (ptr, ptr, i32, i32, i32, ptr, ptr, ...) @proto_tree_add_subtree_format(ptr noundef %43, ptr noundef %44, i32 noundef 0, i32 noundef 5, i32 noundef %45, ptr noundef null, ptr noundef @.str.2189, i32 noundef %48, i32 noundef %51, i32 noundef %54, i32 noundef %57, i32 noundef %60)
  store ptr %61, ptr %11, align 8
  %62 = load ptr, ptr %11, align 8
  %63 = load i32, ptr @hf_r3_declinedlogdump_starttime_year, align 4
  %64 = load ptr, ptr %14, align 8
  %65 = call ptr @proto_tree_add_item(ptr noundef %62, i32 noundef %63, ptr noundef %64, i32 noundef 0, i32 noundef 1, i32 noundef -2147483648)
  %66 = load ptr, ptr %11, align 8
  %67 = load i32, ptr @hf_r3_declinedlogdump_starttime_month, align 4
  %68 = load ptr, ptr %14, align 8
  %69 = call ptr @proto_tree_add_item(ptr noundef %66, i32 noundef %67, ptr noundef %68, i32 noundef 1, i32 noundef 1, i32 noundef -2147483648)
  %70 = load ptr, ptr %11, align 8
  %71 = load i32, ptr @hf_r3_declinedlogdump_starttime_day, align 4
  %72 = load ptr, ptr %14, align 8
  %73 = call ptr @proto_tree_add_item(ptr noundef %70, i32 noundef %71, ptr noundef %72, i32 noundef 2, i32 noundef 1, i32 noundef -2147483648)
  %74 = load ptr, ptr %11, align 8
  %75 = load i32, ptr @hf_r3_declinedlogdump_starttime_hours, align 4
  %76 = load ptr, ptr %14, align 8
  %77 = call ptr @proto_tree_add_item(ptr noundef %74, i32 noundef %75, ptr noundef %76, i32 noundef 3, i32 noundef 1, i32 noundef -2147483648)
  %78 = load ptr, ptr %11, align 8
  %79 = load i32, ptr @hf_r3_declinedlogdump_starttime_minutes, align 4
  %80 = load ptr, ptr %14, align 8
  %81 = call ptr @proto_tree_add_item(ptr noundef %78, i32 noundef %79, ptr noundef %80, i32 noundef 4, i32 noundef 1, i32 noundef -2147483648)
  %82 = load ptr, ptr %10, align 8
  %83 = load ptr, ptr %14, align 8
  %84 = load i32, ptr @ett_r3declinedlogdumpendtime, align 4
  %85 = load ptr, ptr %14, align 8
  %86 = call zeroext i8 @tvb_get_uint8(ptr noundef %85, i32 noundef 5)
  %87 = zext i8 %86 to i32
  %88 = load ptr, ptr %14, align 8
  %89 = call zeroext i8 @tvb_get_uint8(ptr noundef %88, i32 noundef 6)
  %90 = zext i8 %89 to i32
  %91 = load ptr, ptr %14, align 8
  %92 = call zeroext i8 @tvb_get_uint8(ptr noundef %91, i32 noundef 7)
  %93 = zext i8 %92 to i32
  %94 = load ptr, ptr %14, align 8
  %95 = call zeroext i8 @tvb_get_uint8(ptr noundef %94, i32 noundef 8)
  %96 = zext i8 %95 to i32
  %97 = load ptr, ptr %14, align 8
  %98 = call zeroext i8 @tvb_get_uint8(ptr noundef %97, i32 noundef 9)
  %99 = zext i8 %98 to i32
  %100 = call ptr (ptr, ptr, i32, i32, i32, ptr, ptr, ...) @proto_tree_add_subtree_format(ptr noundef %82, ptr noundef %83, i32 noundef 5, i32 noundef 5, i32 noundef %84, ptr noundef null, ptr noundef @.str.2190, i32 noundef %87, i32 noundef %90, i32 noundef %93, i32 noundef %96, i32 noundef %99)
  store ptr %100, ptr %12, align 8
  %101 = load ptr, ptr %12, align 8
  %102 = load i32, ptr @hf_r3_declinedlogdump_endtime_year, align 4
  %103 = load ptr, ptr %14, align 8
  %104 = call ptr @proto_tree_add_item(ptr noundef %101, i32 noundef %102, ptr noundef %103, i32 noundef 5, i32 noundef 1, i32 noundef -2147483648)
  %105 = load ptr, ptr %12, align 8
  %106 = load i32, ptr @hf_r3_declinedlogdump_endtime_month, align 4
  %107 = load ptr, ptr %14, align 8
  %108 = call ptr @proto_tree_add_item(ptr noundef %105, i32 noundef %106, ptr noundef %107, i32 noundef 6, i32 noundef 1, i32 noundef -2147483648)
  %109 = load ptr, ptr %12, align 8
  %110 = load i32, ptr @hf_r3_declinedlogdump_endtime_day, align 4
  %111 = load ptr, ptr %14, align 8
  %112 = call ptr @proto_tree_add_item(ptr noundef %109, i32 noundef %110, ptr noundef %111, i32 noundef 7, i32 noundef 1, i32 noundef -2147483648)
  %113 = load ptr, ptr %12, align 8
  %114 = load i32, ptr @hf_r3_declinedlogdump_endtime_hours, align 4
  %115 = load ptr, ptr %14, align 8
  %116 = call ptr @proto_tree_add_item(ptr noundef %113, i32 noundef %114, ptr noundef %115, i32 noundef 8, i32 noundef 1, i32 noundef -2147483648)
  %117 = load ptr, ptr %12, align 8
  %118 = load i32, ptr @hf_r3_declinedlogdump_endtime_minutes, align 4
  %119 = load ptr, ptr %14, align 8
  %120 = call ptr @proto_tree_add_item(ptr noundef %117, i32 noundef %118, ptr noundef %119, i32 noundef 9, i32 noundef 1, i32 noundef -2147483648)
  store i32 0, ptr %15, align 4
  br label %121

121:                                              ; preds = %19, %18
  call void @llvm.lifetime.end.p0(i64 8, ptr %14) #5
  call void @llvm.lifetime.end.p0(i64 1, ptr %13) #5
  call void @llvm.lifetime.end.p0(i64 8, ptr %12) #5
  call void @llvm.lifetime.end.p0(i64 8, ptr %11) #5
  %122 = load i32, ptr %15, align 4
  switch i32 %122, label %124 [
    i32 0, label %123
    i32 1, label %123
  ]

123:                                              ; preds = %121, %121
  ret void

124:                                              ; preds = %121
  unreachable
}