; Function Attrs: null_pointer_is_valid sspstrong uwtable
define internal void @dissect_r3_cmd_declinedlogdump(ptr noundef %0, i32 noundef %1, i32 %2, ptr readnone captures(none) %3, ptr noundef %4) #0 {
  %.not = icmp eq ptr %4, null
  br i1 %.not, label %61, label %6

6:                                                ; preds = %5
  %7 = tail call zeroext i8 @tvb_get_uint8(ptr noundef %0, i32 noundef %1)
  %8 = add i32 %1, 2
  %9 = zext i8 %7 to i32
  %10 = add nsw i32 %9, -2
  %11 = tail call ptr @tvb_new_subset_length(ptr noundef %0, i32 noundef %8, i32 noundef %10)
  %12 = load i32, ptr @hf_r3_commandlength, align 4
  %13 = tail call ptr @proto_tree_add_item(ptr noundef nonnull %4, i32 noundef %12, ptr noundef %0, i32 noundef %1, i32 noundef 1, i32 noundef -2147483648)
  %14 = load i32, ptr @hf_r3_command, align 4
  %15 = add i32 %1, 1
  %16 = tail call ptr @proto_tree_add_item(ptr noundef nonnull %4, i32 noundef %14, ptr noundef %0, i32 noundef %15, i32 noundef 1, i32 noundef -2147483648)
  %17 = load i32, ptr @ett_r3declinedlogdumpstarttime, align 4
  %18 = tail call zeroext i8 @tvb_get_uint8(ptr noundef %11, i32 noundef 0)
  %19 = zext i8 %18 to i32
  %20 = tail call zeroext i8 @tvb_get_uint8(ptr noundef %11, i32 noundef 1)
  %21 = zext i8 %20 to i32
  %22 = tail call zeroext i8 @tvb_get_uint8(ptr noundef %11, i32 noundef 2)
  %23 = zext i8 %22 to i32
  %24 = tail call zeroext i8 @tvb_get_uint8(ptr noundef %11, i32 noundef 3)
  %25 = zext i8 %24 to i32
  %26 = tail call zeroext i8 @tvb_get_uint8(ptr noundef %11, i32 noundef 4)
  %27 = zext i8 %26 to i32
  %28 = tail call ptr (ptr, ptr, i32, i32, i32, ptr, ptr, ...) @proto_tree_add_subtree_format(ptr noundef nonnull %4, ptr noundef %11, i32 noundef 0, i32 noundef 5, i32 noundef %17, ptr noundef null, ptr noundef nonnull @.str.2189, i32 noundef %19, i32 noundef %21, i32 noundef %23, i32 noundef %25, i32 noundef %27)
  %29 = load i32, ptr @hf_r3_declinedlogdump_starttime_year, align 4
  %30 = tail call ptr @proto_tree_add_item(ptr noundef %28, i32 noundef %29, ptr noundef %11, i32 noundef 0, i32 noundef 1, i32 noundef -2147483648)
  %31 = load i32, ptr @hf_r3_declinedlogdump_starttime_month, align 4
  %32 = tail call ptr @proto_tree_add_item(ptr noundef %28, i32 noundef %31, ptr noundef %11, i32 noundef 1, i32 noundef 1, i32 noundef -2147483648)
  %33 = load i32, ptr @hf_r3_declinedlogdump_starttime_day, align 4
  %34 = tail call ptr @proto_tree_add_item(ptr noundef %28, i32 noundef %33, ptr noundef %11, i32 noundef 2, i32 noundef 1, i32 noundef -2147483648)
  %35 = load i32, ptr @hf_r3_declinedlogdump_starttime_hours, align 4
  %36 = tail call ptr @proto_tree_add_item(ptr noundef %28, i32 noundef %35, ptr noundef %11, i32 noundef 3, i32 noundef 1, i32 noundef -2147483648)
  %37 = load i32, ptr @hf_r3_declinedlogdump_starttime_minutes, align 4
  %38 = tail call ptr @proto_tree_add_item(ptr noundef %28, i32 noundef %37, ptr noundef %11, i32 noundef 4, i32 noundef 1, i32 noundef -2147483648)
  %39 = load i32, ptr @ett_r3declinedlogdumpendtime, align 4
  %40 = tail call zeroext i8 @tvb_get_uint8(ptr noundef %11, i32 noundef 5)
  %41 = zext i8 %40 to i32
  %42 = tail call zeroext i8 @tvb_get_uint8(ptr noundef %11, i32 noundef 6)
  %43 = zext i8 %42 to i32
  %44 = tail call zeroext i8 @tvb_get_uint8(ptr noundef %11, i32 noundef 7)
  %45 = zext i8 %44 to i32
  %46 = tail call zeroext i8 @tvb_get_uint8(ptr noundef %11, i32 noundef 8)
  %47 = zext i8 %46 to i32
  %48 = tail call zeroext i8 @tvb_get_uint8(ptr noundef %11, i32 noundef 9)
  %49 = zext i8 %48 to i32
  %50 = tail call ptr (ptr, ptr, i32, i32, i32, ptr, ptr, ...) @proto_tree_add_subtree_format(ptr noundef nonnull %4, ptr noundef %11, i32 noundef 5, i32 noundef 5, i32 noundef %39, ptr noundef null, ptr noundef nonnull @.str.2190, i32 noundef %41, i32 noundef %43, i32 noundef %45, i32 noundef %47, i32 noundef %49)
  %51 = load i32, ptr @hf_r3_declinedlogdump_endtime_year, align 4
  %52 = tail call ptr @proto_tree_add_item(ptr noundef %50, i32 noundef %51, ptr noundef %11, i32 noundef 5, i32 noundef 1, i32 noundef -2147483648)
  %53 = load i32, ptr @hf_r3_declinedlogdump_endtime_month, align 4
  %54 = tail call ptr @proto_tree_add_item(ptr noundef %50, i32 noundef %53, ptr noundef %11, i32 noundef 6, i32 noundef 1, i32 noundef -2147483648)
  %55 = load i32, ptr @hf_r3_declinedlogdump_endtime_day, align 4
  %56 = tail call ptr @proto_tree_add_item(ptr noundef %50, i32 noundef %55, ptr noundef %11, i32 noundef 7, i32 noundef 1, i32 noundef -2147483648)
  %57 = load i32, ptr @hf_r3_declinedlogdump_endtime_hours, align 4
  %58 = tail call ptr @proto_tree_add_item(ptr noundef %50, i32 noundef %57, ptr noundef %11, i32 noundef 8, i32 noundef 1, i32 noundef -2147483648)
  %59 = load i32, ptr @hf_r3_declinedlogdump_endtime_minutes, align 4
  %60 = tail call ptr @proto_tree_add_item(ptr noundef %50, i32 noundef %59, ptr noundef %11, i32 noundef 9, i32 noundef 1, i32 noundef -2147483648)
  br label %61

61:                                               ; preds = %5, %6
  ret void
}